	.syntax unified
	.cpu cortex-m3
	.fpu softvfp
	.eabi_attribute 20, 1
	.eabi_attribute 21, 1
	.eabi_attribute 23, 3
	.eabi_attribute 24, 1
	.eabi_attribute 25, 1
	.eabi_attribute 26, 1
	.eabi_attribute 30, 2
	.eabi_attribute 34, 1
	.eabi_attribute 18, 4
	.thumb
	.file	"usart.c"
	.text
.Ltext0:
	.cfi_sections	.debug_frame
	.align	2
	.global	usart_tx_byte
	.thumb
	.thumb_func
	.type	usart_tx_byte, %function
usart_tx_byte:
.LFB63:
	.file 1 "usart.c"
	.loc 1 15 0
	.cfi_startproc
	@ args = 0, pretend = 0, frame = 0
	@ frame_needed = 0, uses_anonymous_args = 0
	@ link register save eliminated.
.LVL0:
.L2:
	.loc 1 16 0 discriminator 1
	ldr	r3, [r0]
	lsls	r3, r3, #25
	bpl	.L2
	.loc 1 20 0
	str	r1, [r0, #4]
	bx	lr
	.cfi_endproc
.LFE63:
	.size	usart_tx_byte, .-usart_tx_byte
	.align	2
	.global	usart_rx_byte
	.thumb
	.thumb_func
	.type	usart_rx_byte, %function
usart_rx_byte:
.LFB64:
	.loc 1 23 0
	.cfi_startproc
	@ args = 0, pretend = 0, frame = 0
	@ frame_needed = 0, uses_anonymous_args = 0
	@ link register save eliminated.
.LVL1:
.L7:
	.loc 1 25 0 discriminator 1
	ldr	r3, [r0]
	lsls	r3, r3, #26
	bpl	.L7
	.loc 1 29 0
	ldr	r0, [r0, #4]
.LVL2:
	.loc 1 30 0
	uxtb	r0, r0
	bx	lr
	.cfi_endproc
.LFE64:
	.size	usart_rx_byte, .-usart_rx_byte
	.align	2
	.global	usart2_init
	.thumb
	.thumb_func
	.type	usart2_init, %function
usart2_init:
.LFB65:
	.loc 1 34 0
	.cfi_startproc
	@ args = 0, pretend = 0, frame = 0
	@ frame_needed = 0, uses_anonymous_args = 0
	@ link register save eliminated.
.LVL3:
	.loc 1 36 0
	ldr	r2, .L12
	.loc 1 34 0
	push	{r4}
	.cfi_def_cfa_offset 4
	.cfi_offset 4, -4
	.loc 1 36 0
	ldr	r4, [r2, #28]
	.loc 1 39 0
	ldr	r3, .L12+4
	.loc 1 36 0
	orr	r4, r4, #131072
	str	r4, [r2, #28]
	.loc 1 38 0
	ldr	r4, [r2, #24]
	.loc 1 48 0
	ldr	r1, .L12+8
	.loc 1 38 0
	orr	r4, r4, #4
	str	r4, [r2, #24]
	.loc 1 39 0
	ldr	r2, [r3]
	.loc 1 50 0
	ldr	r4, [sp], #4
	.cfi_restore 4
	.cfi_def_cfa_offset 0
	.loc 1 39 0
	bic	r2, r2, #65280
	str	r2, [r3]
	.loc 1 41 0
	ldr	r2, [r3]
	orr	r2, r2, #2816
	str	r2, [r3]
	.loc 1 42 0
	ldr	r2, [r3]
	orr	r2, r2, #16384
	str	r2, [r3]
	.loc 1 48 0
	str	r0, [r1, #8]
	.loc 1 49 0
	ldr	r3, [r1, #12]
	orr	r3, r3, #8192
	orr	r3, r3, #12
	str	r3, [r1, #12]
	.loc 1 50 0
	bx	lr
.L13:
	.align	2
.L12:
	.word	1073876992
	.word	1073809408
	.word	1073759232
	.cfi_endproc
.LFE65:
	.size	usart2_init, .-usart2_init
	.align	2
	.global	usart2_tx_byte
	.thumb
	.thumb_func
	.type	usart2_tx_byte, %function
usart2_tx_byte:
.LFB66:
	.loc 1 52 0
	.cfi_startproc
	@ args = 0, pretend = 0, frame = 0
	@ frame_needed = 0, uses_anonymous_args = 0
	@ link register save eliminated.
.LVL4:
.LBB30:
.LBB31:
	.loc 1 16 0
	ldr	r1, .L18
.L15:
	ldr	r3, [r1]
	ldr	r2, .L18
	lsls	r3, r3, #25
	bpl	.L15
	.loc 1 20 0
	str	r0, [r2, #4]
	bx	lr
.L19:
	.align	2
.L18:
	.word	1073759232
.LBE31:
.LBE30:
	.cfi_endproc
.LFE66:
	.size	usart2_tx_byte, .-usart2_tx_byte
	.align	2
	.global	usart2_rx_byte
	.thumb
	.thumb_func
	.type	usart2_rx_byte, %function
usart2_rx_byte:
.LFB67:
	.loc 1 56 0
	.cfi_startproc
	@ args = 0, pretend = 0, frame = 0
	@ frame_needed = 0, uses_anonymous_args = 0
	@ link register save eliminated.
.LVL5:
.LBB32:
.LBB33:
	.loc 1 25 0
	ldr	r1, .L24
.L21:
	ldr	r3, [r1]
	ldr	r2, .L24
	lsls	r3, r3, #26
	bpl	.L21
	.loc 1 29 0
	ldr	r0, [r2, #4]
.LBE33:
.LBE32:
	.loc 1 58 0
	uxtb	r0, r0
	bx	lr
.L25:
	.align	2
.L24:
	.word	1073759232
	.cfi_endproc
.LFE67:
	.size	usart2_rx_byte, .-usart2_rx_byte
	.align	2
	.global	usart2_irq_enable
	.thumb
	.thumb_func
	.type	usart2_irq_enable, %function
usart2_irq_enable:
.LFB68:
	.loc 1 60 0
	.cfi_startproc
	@ args = 0, pretend = 0, frame = 0
	@ frame_needed = 0, uses_anonymous_args = 0
	@ link register save eliminated.
	.loc 1 61 0
	ldr	r2, .L27
.LBB34:
.LBB35:
	.file 2 "/home/semir/.stm/Libraries/STM32F1/CMSIS/Include/core_cm3.h"
	.loc 2 1454 0
	ldr	r1, .L27+4
.LBE35:
.LBE34:
	.loc 1 61 0
	ldr	r3, [r2, #12]
.LBB38:
.LBB36:
	.loc 2 1454 0
	movs	r0, #64
.LBE36:
.LBE38:
	.loc 1 61 0
	bic	r3, r3, #8192
	str	r3, [r2, #12]
.LVL6:
.LBB39:
.LBB37:
	.loc 2 1454 0
	str	r0, [r1, #4]
.LBE37:
.LBE39:
	.loc 1 63 0
	ldr	r3, [r2, #12]
	orr	r3, r3, #8192
	orr	r3, r3, #32
	str	r3, [r2, #12]
	bx	lr
.L28:
	.align	2
.L27:
	.word	1073759232
	.word	-536813312
	.cfi_endproc
.LFE68:
	.size	usart2_irq_enable, .-usart2_irq_enable
	.align	2
	.global	usart2_irq_disable
	.thumb
	.thumb_func
	.type	usart2_irq_disable, %function
usart2_irq_disable:
.LFB69:
	.loc 1 67 0
	.cfi_startproc
	@ args = 0, pretend = 0, frame = 0
	@ frame_needed = 0, uses_anonymous_args = 0
	@ link register save eliminated.
	.loc 1 68 0
	ldr	r2, .L30
.LBB40:
.LBB41:
	.loc 2 1465 0
	ldr	r1, .L30+4
.LBE41:
.LBE40:
	.loc 1 68 0
	ldr	r3, [r2, #12]
.LBB44:
.LBB42:
	.loc 2 1465 0
	movs	r0, #64
.LBE42:
.LBE44:
	.loc 1 68 0
	bic	r3, r3, #8192
	bic	r3, r3, #32
	str	r3, [r2, #12]
.LVL7:
.LBB45:
.LBB43:
	.loc 2 1465 0
	str	r0, [r1, #132]
.LBE43:
.LBE45:
	.loc 1 70 0
	ldr	r3, [r2, #12]
	orr	r3, r3, #8192
	str	r3, [r2, #12]
	bx	lr
.L31:
	.align	2
.L30:
	.word	1073759232
	.word	-536813312
	.cfi_endproc
.LFE69:
	.size	usart2_irq_disable, .-usart2_irq_disable
	.align	2
	.global	USART2_IRQHandler
	.thumb
	.thumb_func
	.type	USART2_IRQHandler, %function
USART2_IRQHandler:
.LFB70:
	.loc 1 74 0
	.cfi_startproc
	@ args = 0, pretend = 0, frame = 0
	@ frame_needed = 0, uses_anonymous_args = 0
	@ link register save eliminated.
	.loc 1 75 0
	ldr	r2, .L37
	ldr	r3, .L37+4
	ldrh	r1, [r2]
	.loc 1 74 0
	push	{r4}
	.cfi_def_cfa_offset 4
	.cfi_offset 4, -4
	.loc 1 75 0
	ldr	r4, [r3, #4]
	.loc 1 76 0
	adds	r3, r1, #1
	uxth	r3, r3
	.loc 1 75 0
	ldr	r0, .L37+8
	.loc 1 77 0
	cmp	r3, #512
	.loc 1 75 0
	strb	r4, [r0, r1]
	.loc 1 77 0
	it	cs
	movcs	r3, #65
	strh	r3, [r2]	@ movhi
	.loc 1 78 0
	ldr	r4, [sp], #4
	.cfi_restore 4
	.cfi_def_cfa_offset 0
	bx	lr
.L38:
	.align	2
.L37:
	.word	.LANCHOR0
	.word	1073759232
	.word	.LANCHOR1
	.cfi_endproc
.LFE70:
	.size	USART2_IRQHandler, .-USART2_IRQHandler
	.align	2
	.global	usart2_read_rx_buffer
	.thumb
	.thumb_func
	.type	usart2_read_rx_buffer, %function
usart2_read_rx_buffer:
.LFB71:
	.loc 1 80 0
	.cfi_startproc
	@ args = 0, pretend = 0, frame = 8
	@ frame_needed = 0, uses_anonymous_args = 0
	push	{r4, lr}
	.cfi_def_cfa_offset 8
	.cfi_offset 4, -8
	.cfi_offset 14, -4
	.loc 1 82 0
	ldr	r4, .L82
	.loc 1 80 0
	sub	sp, sp, #8
	.cfi_def_cfa_offset 16
	.loc 1 82 0
	ldrh	r3, [r4, #512]
	.loc 1 81 0
	movs	r2, #0
	strb	r2, [sp, #7]
	.loc 1 82 0
	cbnz	r3, .L40
	.loc 1 82 0 is_stmt 0 discriminator 1
	ldrb	r3, [r4]	@ zero_extendqisi2
	cmp	r3, #10
	beq	.L40
	.loc 1 84 0 is_stmt 1
	movs	r3, #10
	.loc 1 85 0
	ldr	r0, .L82+4
	.loc 1 84 0
	strb	r3, [r4]
	.loc 1 85 0
	bl	print
.LVL8:
.L40:
	.loc 1 87 0
	ldr	r2, .L82+8
	ldrh	r3, [r2, #2]
	ldrh	r1, [r2]
	cmp	r1, r3
	beq	.L56
	.loc 1 89 0
	ldrb	r1, [r4, r3]	@ zero_extendqisi2
	.loc 1 90 0
	adds	r3, r3, #1
	uxth	r3, r3
	.loc 1 91 0
	cmp	r3, #512
	it	cs
	movcs	r3, #65
	.loc 1 89 0
	strb	r1, [sp, #7]
	.loc 1 91 0
	strh	r3, [r2, #2]	@ movhi
	.loc 1 92 0
	ldrb	r3, [sp, #7]	@ zero_extendqisi2
	cmp	r3, #8
	beq	.L44
	.loc 1 92 0 is_stmt 0 discriminator 1
	ldrb	r3, [sp, #7]	@ zero_extendqisi2
	cmp	r3, #127
	beq	.L44
	.loc 1 106 0 is_stmt 1
	ldrb	r3, [sp, #7]	@ zero_extendqisi2
	cmp	r3, #10
	beq	.L52
	.loc 1 106 0 is_stmt 0 discriminator 1
	ldrb	r3, [sp, #7]	@ zero_extendqisi2
	cmp	r3, #13
	beq	.L52
	.loc 1 106 0 discriminator 2
	ldrh	r0, [r4, #512]
	ldr	r3, .L82
	cmp	r0, #62
	bls	.L81
.L53:
.LBB46:
.LBB47:
.LBB48:
	.loc 1 16 0 is_stmt 1
	ldr	r1, .L82+12
.L51:
	ldr	r3, [r1]
	ldr	r2, .L82+12
	lsls	r3, r3, #25
	bpl	.L51
.LBE48:
.LBE47:
.LBE46:
.LBB51:
.LBB52:
.LBB53:
	mov	r1, r2
.LBE53:
.LBE52:
.LBE51:
.LBB58:
.LBB50:
.LBB49:
	.loc 1 20 0
	movs	r3, #10
	str	r3, [r2, #4]
.LVL9:
.L55:
.LBE49:
.LBE50:
.LBE58:
.LBB59:
.LBB56:
.LBB54:
	.loc 1 16 0
	ldr	r3, [r1]
	ldr	r2, .L82+12
	lsls	r3, r3, #25
	bpl	.L55
.LBE54:
.LBE56:
.LBE59:
	.loc 1 110 0
	movs	r3, #0
.LBB60:
.LBB57:
.LBB55:
	.loc 1 20 0
	movs	r1, #13
	str	r1, [r2, #4]
.LBE55:
.LBE57:
.LBE60:
	.loc 1 110 0
	strb	r3, [r4, r0]
	.loc 1 113 0
	ldr	r0, .L82
	.loc 1 112 0
	strh	r3, [r4, #512]	@ movhi
	.loc 1 111 0
	strb	r3, [r4, #64]
.LVL10:
.L41:
	.loc 1 122 0
	add	sp, sp, #8
	.cfi_remember_state
	.cfi_def_cfa_offset 8
	@ sp needed
	pop	{r4, pc}
.L44:
	.cfi_restore_state
	.loc 1 94 0
	ldrh	r0, [r4, #512]
	ldr	r3, .L82
	cbz	r0, .L46
.LBB61:
.LBB62:
.LBB63:
	.loc 1 16 0
	ldr	r1, .L82+12
.L68:
	ldr	r3, [r1]
	ldr	r2, .L82+12
	lsls	r3, r3, #25
	bpl	.L68
.LBE63:
.LBE62:
.LBE61:
.LBB66:
.LBB67:
.LBB68:
	mov	r1, r2
.LBE68:
.LBE67:
.LBE66:
.LBB73:
.LBB65:
.LBB64:
	.loc 1 20 0
	movs	r3, #8
	str	r3, [r2, #4]
.LVL11:
.L48:
.LBE64:
.LBE65:
.LBE73:
.LBB74:
.LBB71:
.LBB69:
	.loc 1 16 0
	ldr	r3, [r1]
	ldr	r2, .L82+12
	lsls	r3, r3, #25
	bpl	.L48
.LBE69:
.LBE71:
.LBE74:
.LBB75:
.LBB76:
.LBB77:
	mov	r1, r2
.LBE77:
.LBE76:
.LBE75:
.LBB84:
.LBB72:
.LBB70:
	.loc 1 20 0
	movs	r3, #32
	str	r3, [r2, #4]
.LVL12:
.L49:
.LBE70:
.LBE72:
.LBE84:
.LBB85:
.LBB81:
.LBB78:
	.loc 1 16 0
	ldr	r3, [r1]
	ldr	r2, .L82+12
	lsls	r3, r3, #25
	bpl	.L49
.LBE78:
.LBE81:
.LBE85:
	.loc 1 99 0
	subs	r0, r0, #1
	uxth	r3, r0
.LBB86:
.LBB82:
.LBB79:
	.loc 1 20 0
	movs	r0, #8
.LBE79:
.LBE82:
.LBE86:
	.loc 1 99 0
	movs	r1, #10
	strh	r3, [r4, #512]	@ movhi
.LBB87:
.LBB83:
.LBB80:
	.loc 1 20 0
	str	r0, [r2, #4]
.LBE80:
.LBE83:
.LBE87:
	.loc 1 121 0
	movs	r0, #0
	.loc 1 99 0
	strb	r1, [r4, r3]
	.loc 1 122 0
	add	sp, sp, #8
	.cfi_remember_state
	.cfi_def_cfa_offset 8
	@ sp needed
	pop	{r4, pc}
.LVL13:
.L52:
	.cfi_restore_state
	ldrh	r0, [r4, #512]
	b	.L53
.L46:
	.loc 1 103 0
	movs	r2, #10
	strb	r2, [r3]
	.loc 1 122 0
	add	sp, sp, #8
	.cfi_remember_state
	.cfi_def_cfa_offset 8
	@ sp needed
	pop	{r4, pc}
.L56:
	.cfi_restore_state
	.loc 1 121 0
	movs	r0, #0
	b	.L41
.L81:
	.loc 1 117 0
	ldrb	r2, [sp, #7]	@ zero_extendqisi2
	ldr	r1, .L82+12
	uxtb	r2, r2
	str	r2, [r1, #4]
	.loc 1 118 0
	ldrb	r1, [sp, #7]	@ zero_extendqisi2
	adds	r2, r0, #1
	strb	r1, [r3, r0]
	strh	r2, [r3, #512]	@ movhi
	.loc 1 121 0
	movs	r0, #0
	b	.L41
.L83:
	.align	2
.L82:
	.word	.LANCHOR1
	.word	.LC0
	.word	.LANCHOR0
	.word	1073759232
	.cfi_endproc
.LFE71:
	.size	usart2_read_rx_buffer, .-usart2_read_rx_buffer
	.align	2
	.global	usart3_init
	.thumb
	.thumb_func
	.type	usart3_init, %function
usart3_init:
.LFB72:
	.loc 1 127 0
	.cfi_startproc
	@ args = 0, pretend = 0, frame = 0
	@ frame_needed = 0, uses_anonymous_args = 0
	@ link register save eliminated.
.LVL14:
	.loc 1 129 0
	ldr	r2, .L86
	.loc 1 127 0
	push	{r4}
	.cfi_def_cfa_offset 4
	.cfi_offset 4, -4
	.loc 1 129 0
	ldr	r4, [r2, #28]
	.loc 1 133 0
	ldr	r3, .L86+4
	.loc 1 129 0
	orr	r4, r4, #262144
	str	r4, [r2, #28]
	.loc 1 131 0
	ldr	r4, [r2, #24]
	.loc 1 144 0
	ldr	r1, .L86+8
	.loc 1 131 0
	orr	r4, r4, #8
	str	r4, [r2, #24]
	.loc 1 133 0
	ldr	r2, [r3, #4]
	.loc 1 146 0
	ldr	r4, [sp], #4
	.cfi_restore 4
	.cfi_def_cfa_offset 0
	.loc 1 133 0
	bic	r2, r2, #65280
	str	r2, [r3, #4]
	.loc 1 136 0
	ldr	r2, [r3, #4]
	orr	r2, r2, #2816
	str	r2, [r3, #4]
	.loc 1 138 0
	ldr	r2, [r3, #4]
	orr	r2, r2, #16384
	str	r2, [r3, #4]
	.loc 1 144 0
	str	r0, [r1, #8]
	.loc 1 145 0
	ldr	r3, [r1, #12]
	orr	r3, r3, #8192
	orr	r3, r3, #12
	str	r3, [r1, #12]
	.loc 1 146 0
	bx	lr
.L87:
	.align	2
.L86:
	.word	1073876992
	.word	1073810432
	.word	1073760256
	.cfi_endproc
.LFE72:
	.size	usart3_init, .-usart3_init
	.global	g_usart2_rx_buffer
	.data
	.align	1
	.set	.LANCHOR0,. + 0
	.type	g_usart2_tx_wcnt, %object
	.size	g_usart2_tx_wcnt, 2
g_usart2_tx_wcnt:
	.short	65
	.type	g_usart2_tx_rcnt, %object
	.size	g_usart2_tx_rcnt, 2
g_usart2_tx_rcnt:
	.short	65
	.section	.rodata.str1.4,"aMS",%progbits,1
	.align	2
.LC0:
	.ascii	"> \000"
	.bss
	.align	2
	.set	.LANCHOR1,. + 0
	.type	g_usart2_rx_buffer, %object
	.size	g_usart2_rx_buffer, 512
g_usart2_rx_buffer:
	.space	512
	.type	g_usart2_tx_cmdcnt, %object
	.size	g_usart2_tx_cmdcnt, 2
g_usart2_tx_cmdcnt:
	.space	2
	.text
.Letext0:
	.file 3 "/home/semir/.stm/Libraries/STM32F1/CMSIS/Device/ST/STM32F1xx/Include/stm32f103xb.h"
	.file 4 "/home/semir/.stm/gcc-arm-none-eabi/arm-none-eabi/include/machine/_default_types.h"
	.file 5 "/home/semir/.stm/gcc-arm-none-eabi/arm-none-eabi/include/stdint.h"
	.file 6 "../../lib/print.h"